(dp0
I0
(lp1
(F0.6753569883169092
(I14
I129
tp2
F1.7325152696213044
tp3
a(F0.6033990925549573
(I5
I152
tp4
F1.4196483186939326
tp5
a(F0.569915990393502
(I20
I139
tp6
F1.2815084039100506
tp7
a(F0.5708551396376905
(I189
I167
tp8
F1.28534094979178
tp9
a(F0.5496865673393574
(I104
I146
tp10
F1.1994043808880026
tp11
a(F0.5275722086170395
(I2
I158
tp12
F1.1104008315697063
tp13
a(F0.5318693762040454
(I130
I97
tp14
F1.1276505580935838
tp15
a(F0.5238642534647795
(I62
I176
tp16
F1.0955295971148102
tp17
a(F0.5185448282744803
(I127
I160
tp18
F1.074213355942635
tp19
a(F0.5148321299658614
(I10
I64
tp20
F1.0593459314633418
tp21
a(F0.5147509491278159
(I153
I1
tp22
F1.0590209236769312
tp23
a(F0.5145552674637072
(I142
I164
tp24
F1.0582375241845452
tp25
a(F0.5135506820762552
(I179
I54
tp26
F1.0542160045005475
tp27
a(F0.5115817249495975
(I19
I116
tp28
F1.0463351879619536
tp29
a(F0.5121348021173022
(I107
I37
tp30
F1.0485487419247754
tp31
a(F0.5092515951647532
(I18
I146
tp32
F1.0370106047942502
tp33
a(F0.5094555921252326
(I81
I108
tp34
F1.03782687830967
tp35
a(F0.5087915467635589
(I159
I76
tp36
F1.0351698117800898
tp37
a(F0.5061101641232202
(I127
I90
tp38
F1.0244418732286442
tp39
a(F0.5061176601272471
(I138
I40
tp40
F1.0244718617286146
tp41
a(F0.5050168531205502
(I89
I69
tp42
F1.020068085953578
tp43
a(F0.5047791502189977
(I4
I136
tp44
F1.0191171830792025
tp45
a(F0.5037818369943511
(I155
I176
tp46
F1.0151276364616486
tp47
a(F0.5015123544882323
(I134
I103
tp48
F1.0060494364014654
tp49
a(F0.49780316481729175
(I151
I67
tp50
F0.9912126027239327
tp51
a(F0.49614811085894844
(I148
I109
tp52
F0.98459213862133
tp53
a(F0.49647414021486597
(I147
I165
tp54
F0.9858963270797789
tp55
a(F0.495563720217857
(I140
I118
tp56
F0.9822544152038186
tp57
a(F0.49548423683702086
(I176
I106
tp58
F0.9819364561988332
tp59
a(F0.49512106331843164
(I148
I78
tp60
F0.980483633833969
tp61
a(F0.49411944459219986
(I138
I37
tp62
F0.9764766937183077
tp63
a(F0.49265969911590224
(I125
I137
tp64
F0.9706366868812726
tp65
a(F0.4922104928418133
(I30
I54
tp66
F0.9688394502565466
tp67
a(F0.4905205661679568
(I144
I56
tp68
F0.96207772065846
tp69
a(F0.49059052650463886
(I48
I74
tp70
F0.9623576618860754
tp71
a(F0.4907182537795997
(I19
I182
tp72
F0.9628687495431705
tp73
a(F0.4878963242871784
(I42
I74
tp74
F0.9515758368837648
tp75
a(F0.48815792654706464
(I36
I97
tp76
F0.9526228463012772
tp77
a(F0.4916819168693609
(I37
I25
tp78
F0.9667245974615464
tp79
a(F0.4905522602533507
(I33
I6
tp80
F0.9622045424324318
tp81
a(F0.4911127319047663
(I143
I98
tp82
F0.9644471831874083
tp83
a(F0.4908110342473524
(I90
I25
tp84
F0.963239998073077
tp85
a(F0.4897137742321296
(I185
I27
tp86
F0.9588492909264448
tp87
a(F0.4925587202870531
(I187
I33
tp88
F0.9702326832916854
tp89
a(F0.4913602761287838
(I188
I1
tp90
F0.965437664375053
tp91
a(F0.49138220817195843
(I140
I165
tp92
F0.9655254186829142
tp93
a(F0.4872826597916546
(I115
I134
tp94
F0.9491196653875059
tp95
a(F0.4820147606617528
(I173
I75
tp96
F0.9280279909937955
tp97
a(F0.4803117328917046
(I149
I56
tp98
F0.9212061911476163
tp99
a(F0.48209946749284927
(I146
I97
tp100
F0.928367255219631
tp101
a(F0.48037691886161515
(I124
I24
tp102
F0.9214673386002351
tp103
a(F0.4769184955948313
(I84
I31
tp104
F0.9076083154287393
tp105
a(F0.47206165610070877
(I109
I171
tp106
F0.8881301004168304
tp107
a(F0.4741318741628522
(I136
I162
tp108
F0.8964350285656054
tp109
a(F0.4731971568974445
(I18
I144
tp110
F0.8926857570547796
tp111
a(F0.46781147923291133
(I57
I34
tp112
F0.8710676036968262
tp113
a(F0.474042388908306
(I49
I26
tp114
F0.8960761235610055
tp115
a(F0.47868689183598484
(I94
I35
tp116
F0.9146958765838527
tp117
a(F0.45931210680558454
(I33
I154
tp118
F0.8368877450865633
tp119
a(F0.455779375013268
(I33
I43
tp120
F0.8226541404313511
tp121
a(F0.4587798404287702
(I18
I44
tp122
F0.8347442991445204
tp123
a(F0.45486654481920574
(I98
I122
tp124
F0.8189734312597025
tp125
a(F0.44626988228203673
(I100
I69
tp126
F0.7842464703182584
tp127
a(F0.4881294883944935
(I101
I69
tp128
F0.9525090296934113
tp129
asI90
(lp130
(F0.6413078753787764
g82
F1.5810452174516803
tp131
a(F0.5819815009352762
g16
F1.3309129742088963
tp132
a(F0.5896425273328905
g90
F1.3624878030184648
tp133
a(F0.5689441631773547
g6
F1.277544664307162
tp134
a(F0.5676974978463888
g116
F1.2724631229801555
tp135
a(F0.5612153458075587
g92
F1.2460959369109093
tp136
a(F0.5354798425432632
g32
F1.1421582935256813
tp137
a(F0.5340967623188363
g42
F1.136599057285613
tp138
a(F0.5243152869668231
g114
F1.0973379288697196
tp139
a(F0.5232975652498848
g2
F1.093257790974519
tp140
a(F0.5223730927974727
g68
F1.0895521708844087
tp141
a(F0.5187230626768756
g94
F1.0749272851330298
tp142
a(F0.5181211944256964
g30
F1.0725165392494767
tp143
a(F0.5142527807056515
g66
F1.0570265721417373
tp144
a(F0.5115529471105447
g124
F1.0462200149635894
tp145
a(F0.5098628751639777
g88
F1.0394566187791796
tp146
a(F0.5117179204485253
g72
F1.0468802658692846
tp147
a(F0.5095502122074734
g128
F1.0382054954040678
tp148
a(F0.5087145408469765
g48
F1.034861693686354
tp149
a(F0.50965982659476
g118
F1.0386441148167196
tp150
a(F0.5047580214286973
g10
F1.0190326602299689
tp151
a(F0.5050793408756338
g56
F1.0203180624551365
tp152
a(F0.49943272072311945
g52
F0.9977308819188369
tp153
a(F0.49942218300966196
g20
F0.9976887310097694
tp154
a(F0.4975256253733723
g62
F0.9901024206953445
tp155
a(F0.4978233163763645
g86
F0.9912932105020601
tp156
a(F0.4978370171486248
g26
F0.9913480146232303
tp157
a(F0.4966785824324557
g64
F0.9867141343045861
tp158
a(F0.49528110851534934
g40
F0.9811238736048966
tp159
a(F0.49646902087680306
g22
F0.985875848707687
tp160
a(F0.49427465983324137
g38
F0.9770976383267527
tp161
a(F0.49468863110445566
g126
F0.9787537252324449
tp162
a(F0.494328631119438
g60
F0.9773135515156002
tp163
a(F0.49355684825960666
g58
F0.9742259663239332
tp164
a(F0.4912869528498652
g36
F0.9651442829161833
tp165
a(F0.490500412520039
g112
F0.9619970770186795
tp166
a(F0.49314029082230015
g104
F0.9725594415598233
tp167
a(F0.4903279448313968
g98
F0.9613069526007348
tp168
a(F0.487870780007612
g96
F0.9514735997284013
tp169
a(F0.48751528204073175
g50
F0.950050745770516
tp170
a(F0.4888998774591056
g54
F0.9555922134050693
tp171
a(F0.486503297518928
g120
F0.9460000719533707
tp172
a(F0.4844393452905585
g102
F0.9377372747397205
tp173
a(F0.48565268770256786
g84
F0.942594991942544
tp174
a(F0.47946376928966855
g70
F0.9178088389694086
tp175
a(F0.4797897541986753
g34
F0.9191149471512081
tp176
a(F0.47910405248871585
g18
F0.9163674974595258
tp177
a(F0.4778839464087857
g108
F0.9114780250139058
tp178
a(F0.4745514514410773
g24
F0.89811776910906
tp179
a(F0.47131430689251114
g46
F0.885131087338116
tp180
a(F0.46717530819769215
g106
F0.8685121178879729
tp181
a(F0.4677924749928763
g74
F0.8709912701930316
tp182
a(F0.4733791728367464
g110
F0.8934159047262256
tp183
a(F0.47986173365297435
g76
F0.9194033344641616
tp184
a(F0.4795641310431579
g78
F0.9182109610321982
tp185
a(F0.4808122708808338
g14
F0.9232113737915385
tp186
a(F0.4748482771532198
g80
F0.8993081197517847
tp187
a(F0.4534379586519773
g4
F0.8132106285227346
tp188
a(F0.4741395706576094
g12
F0.8964658971441402
tp189
a(F0.4861349826125073
g44
F0.9445257084584054
tp190
a(F0.47259234808400463
g28
F0.8902593909509088
tp191
a(F0.4664054149756709
g8
F0.8654188985780116
tp192
a(F0.4603000087345083
g122
F0.8408650563582991
tp193
a(F0.42821066433431365
g100
F0.7108446516245203
tp194
asI180
(lp195
(F0.6776016875812976
g26
F1.7427718576757512
tp196
a(F0.5995736533390598
g90
F1.4036889787377909
tp197
a(F0.5810584755048285
g50
F1.327120047591606
tp198
a(F0.5593398081617691
g122
F1.2384831358873925
tp199
a(F0.5529401845642706
g58
F1.2125574293734476
tp200
a(F0.5495274619797994
g114
F1.1987616325992632
tp201
a(F0.5371067922696979
g48
F1.148700568391934
tp202
a(F0.537492314575922
g120
F1.150251287488648
tp203
a(F0.5253099424602817
g30
F1.1013263743705404
tp204
a(F0.5273012152638583
g118
F1.1093135843281148
tp205
a(F0.5236541905574893
g56
F1.0946874438889624
tp206
a(F0.5176725852231219
g96
F1.0707198003459493
tp207
a(F0.5192135363552951
g116
F1.0768920076051536
tp208
a(F0.5123983196984943
g70
F1.0496034470735616
tp209
a(F0.5131086817376027
g100
F1.0524467455800075
tp210
a(F0.509112293517304
g92
F1.036453210229332
tp211
a(F0.506518684026264
g74
F1.0260762135891401
tp212
a(F0.5070854042307259
g44
F1.0283435142620834
tp213
a(F0.5049951244406801
g98
F1.0199811625208584
tp214
a(F0.5045908915526234
g112
F1.0183640822842646
tp215
a(F0.5020951495199463
g18
F1.0083806471308483
tp216
a(F0.5025308789746635
g86
F1.010123602359473
tp217
a(F0.5017324560171442
g106
F1.0069298518010175
tp218
a(F0.5021127248688012
g68
F1.0084509497710847
tp219
a(F0.5012750236899784
g128
F1.0051001058148223
tp220
a(F0.5011801225926479
g34
F1.0047204991361829
tp221
a(F0.49998166026461727
g108
F0.9999266410584547
tp222
a(F0.49900725531830936
g38
F0.996029016055115
tp223
a(F0.4986386395918707
g52
F0.9945545449113664
tp224
a(F0.49855970133023053
g62
F0.994238789385681
tp225
a(F0.4993842116939836
g40
F0.9975368455306083
tp226
a(F0.4982383640381948
g64
F0.9929534269952763
tp227
a(F0.4971434022315505
g88
F0.9885734846023254
tp228
a(F0.49649355326458666
g84
F0.9859739831189988
tp229
a(F0.4970897831602498
g82
F0.9883590011840596
tp230
a(F0.49560563708558913
g66
F0.9824220957506382
tp231
a(F0.4956246930348442
g2
F0.9824983254102557
tp232
a(F0.4955697567770042
g4
F0.9822785633388154
tp233
a(F0.4938486790843603
g28
F0.9753934748471644
tp234
a(F0.494887292856071
g20
F0.9795484586061721
tp235
a(F0.4919970274731539
g126
F0.9679853757606582
tp236
a(F0.4902128707370106
g54
F0.9608464818593682
tp237
a(F0.4903471060912042
g42
F0.9613836262740255
tp238
a(F0.4843769745996166
g76
F0.9374875491369771
tp239
a(F0.48899625067798297
g110
F0.9559778947184022
tp240
a(F0.49112950422011
g32
F0.9645142936112783
tp241
a(F0.48861234760522343
g16
F0.9544415120480976
tp242
a(F0.4907390869580313
g78
F0.9629521109190722
tp243
a(F0.4890173287034754
g14
F0.9560622475968065
tp244
a(F0.4902144098159652
g46
F0.9608526405344793
tp245
a(F0.4879586061505571
g36
F0.9518251096597409
tp246
a(F0.4878311416845095
g104
F0.9513149527712927
tp247
a(F0.48326521187428784
g6
F0.9330358353243884
tp248
a(F0.4835256110257027
g10
F0.9340785819462698
tp249
a(F0.47590120281729975
g72
F0.9035300647913453
tp250
a(F0.4789718319505375
g94
F0.9158376840870455
tp251
a(F0.4818294185778399
g24
F0.9272856522321887
tp252
a(F0.4802412460704345
g8
F0.9209238044493483
tp253
a(F0.4727123012534684
g12
F0.8907406433367673
tp254
a(F0.4614454260169834
g124
F0.845474957560787
tp255
a(F0.45732729729055754
g80
F0.8288929404249038
tp256
a(F0.454599418550922
g22
F0.8178960958756104
tp257
a(F0.44323716616927333
g102
F0.7719656333955773
tp258
a(F0.45477960815990504
g60
F0.8186228223140556
tp259
asI270
(lp260
(F0.6348442232801158
g64
F1.5530556030581764
tp261
a(F0.5996939768416263
g128
F1.4041901740107676
tp262
a(F0.5828205049743829
g12
F1.3343626843620426
tp263
a(F0.5787483207525568
g100
F1.3176372358858301
tp264
a(F0.5521841630242517
g8
F1.209499549582542
tp265
a(F0.5557068031279434
g30
F1.2237561248477786
tp266
a(F0.5333440911515555
g122
F1.1335746160637892
tp267
a(F0.5296053965927605
g24
F1.1185602703418256
tp268
a(F0.526680715700284
g96
F1.106824331947366
tp269
a(F0.5240284472846286
g124
F1.0961878823161564
tp270
a(F0.5142097192863591
g4
F1.0568541868126875
tp271
a(F0.5140107355151692
g58
F1.0560576173342084
tp272
a(F0.5094236756467903
g120
F1.0376991668760067
tp273
a(F0.506797771362525
g118
F1.0271927609582698
tp274
a(F0.5057102409606277
g34
F1.0228419569495129
tp275
a(F0.5066204679345021
g48
F1.0264834195224142
tp276
a(F0.5034602889031332
g108
F1.0138413765901544
tp277
a(F0.5033247524114414
g40
F1.0132992056602532
tp278
a(F0.5036578424178775
g16
F1.014631630699893
tp279
a(F0.5035535472102892
g60
F1.014214428171662
tp280
a(F0.5032449871987341
g110
F1.012980131037018
tp281
a(F0.5012070856077357
g20
F1.0048283518112222
tp282
a(F0.5003370619532868
g92
F1.0013482480173508
tp283
a(F0.5003272691119491
g52
F1.0013090766347612
tp284
a(F0.49974726964350075
g66
F0.9989890784878886
tp285
a(F0.49883035633055434
g44
F0.9953214167880637
tp286
a(F0.4974807420746686
g56
F0.989922883023373
tp287
a(F0.49673857803690263
g62
F0.9869541271224112
tp288
a(F0.4952675328445436
g106
F0.9810695660705012
tp289
a(F0.49231027931686094
g116
F0.969238691818895
tp290
a(F0.49256513438244703
g112
F0.9702583453522864
tp291
a(F0.49129822162666464
g50
F0.9651893716977641
tp292
a(F0.4921667106543781
g26
F0.9686642787522567
tp293
a(F0.4926131849101185
g98
F0.9704505896957646
tp294
a(F0.49228379659090266
g102
F0.9691327357672072
tp295
a(F0.4928187773041074
g38
F0.971273133849999
tp296
a(F0.48642099638311176
g18
F0.945670625894482
tp297
a(F0.48505600695624823
g42
F0.9402062191521618
tp298
a(F0.4850974040579965
g22
F0.9403719552000401
tp299
a(F0.4840687144163644
g86
F0.9362532794338108
tp300
a(F0.49188018056065824
g88
F0.9675178665821448
tp301
a(F0.48817250762620173
g90
F0.9526812033122332
tp302
a(F0.49229954769468276
g84
F0.9691957551603735
tp303
a(F0.49383567850955074
g104
F0.9753414646592474
tp304
a(F0.48109146441674255
g36
F0.9243297711228625
tp305
a(F0.48229450543737584
g68
F0.9291483973312165
tp306
a(F0.47769025856307973
g126
F0.9107017415083878
tp307
a(F0.4704820415337884
g114
F0.8817907090386502
tp308
a(F0.46879273890123063
g14
F0.8750084821449854
tp309
a(F0.47485827156453
g82
F0.8993481987741878
tp310
a(F0.4738965205958781
g46
F0.8954910645883013
tp311
a(F0.46244924921110714
g78
F0.8495136438792421
tp312
a(F0.4698259601302735
g80
F0.8791569987769534
tp313
a(F0.47261139453760775
g76
F0.890335806212105
tp314
a(F0.4691960148344632
g10
F0.8766278129330336
tp315
a(F0.45998615159111894
g74
F0.839601599362153
tp316
a(F0.4777728763322643
g32
F0.9110328693887566
tp317
a(F0.4675090416398664
g94
F0.8698527711138232
tp318
a(F0.4729510914291143
g72
F0.8916986324890486
tp319
a(F0.47866144606480565
g28
F0.9145939080015459
tp320
a(F0.4659067958010573
g2
F0.8634152416822685
tp321
a(F0.4614460288038411
g6
F0.8454773831300003
tp322
a(F0.4461424358981948
g70
F0.7837307148541112
tp323
a(F0.42687179979918904
g54
F0.7053743067171172
tp324
as.